; ModuleID = '36/626.c'
source_filename = "36/626.c"
target datalayout = "e-m:e-p270:32:32-p271:32:32-p272:64:64-i64:64-f80:128-n8:16:32:64-S128"
target triple = "x86_64-pc-linux-gnu"

@.str = private unnamed_addr constant [6 x i8] c"%s %s\00", align 1
@.str.1 = private unnamed_addr constant [4 x i8] c"YES\00", align 1
@.str.2 = private unnamed_addr constant [3 x i8] c"NO\00", align 1

; Function Attrs: noinline nounwind uwtable
define dso_local void @main() #0 {
  %1 = alloca [2 x [100 x i8]], align 16
  %2 = alloca i32, align 4
  %3 = alloca i32, align 4
  %4 = alloca i32, align 4
  %5 = alloca [2 x i32], align 4
  %6 = alloca i32, align 4
  %7 = alloca i8, align 1
  store i32 0, i32* %6, align 4
  %8 = getelementptr inbounds [2 x [100 x i8]], [2 x [100 x i8]]* %1, i64 0, i64 0
  %9 = getelementptr inbounds [100 x i8], [100 x i8]* %8, i64 0, i64 0
  %10 = getelementptr inbounds [2 x [100 x i8]], [2 x [100 x i8]]* %1, i64 0, i64 1
  %11 = getelementptr inbounds [100 x i8], [100 x i8]* %10, i64 0, i64 0
  %12 = call i32 (i8*, ...) @__isoc99_scanf(i8* getelementptr inbounds ([6 x i8], [6 x i8]* @.str, i64 0, i64 0), i8* %9, i8* %11)
  %13 = getelementptr inbounds [2 x [100 x i8]], [2 x [100 x i8]]* %1, i64 0, i64 0
  %14 = getelementptr inbounds [100 x i8], [100 x i8]* %13, i64 0, i64 0
  %15 = call i64 @strlen(i8* %14) #3
  %16 = trunc i64 %15 to i32
  %17 = getelementptr inbounds [2 x i32], [2 x i32]* %5, i64 0, i64 0
  store i32 %16, i32* %17, align 4
  %18 = getelementptr inbounds [2 x [100 x i8]], [2 x [100 x i8]]* %1, i64 0, i64 1
  %19 = getelementptr inbounds [100 x i8], [100 x i8]* %18, i64 0, i64 0
  %20 = call i64 @strlen(i8* %19) #3
  %21 = trunc i64 %20 to i32
  %22 = getelementptr inbounds [2 x i32], [2 x i32]* %5, i64 0, i64 1
  store i32 %21, i32* %22, align 4
  %23 = getelementptr inbounds [2 x i32], [2 x i32]* %5, i64 0, i64 0
  %24 = load i32, i32* %23, align 4
  %25 = getelementptr inbounds [2 x i32], [2 x i32]* %5, i64 0, i64 1
  %26 = load i32, i32* %25, align 4
  %27 = icmp ne i32 %24, %26
  br i1 %27, label %28, label %29

28:                                               ; preds = %0
  store i32 1, i32* %6, align 4
  br label %123

29:                                               ; preds = %0
  store i32 0, i32* %4, align 4
  br label %30

30:                                               ; preds = %110, %29
  %31 = load i32, i32* %4, align 4
  %32 = icmp slt i32 %31, 2
  br i1 %32, label %33, label %113

33:                                               ; preds = %30
  store i32 0, i32* %2, align 4
  br label %34

34:                                               ; preds = %106, %33
  %35 = load i32, i32* %2, align 4
  %36 = load i32, i32* %4, align 4
  %37 = sext i32 %36 to i64
  %38 = getelementptr inbounds [2 x i32], [2 x i32]* %5, i64 0, i64 %37
  %39 = load i32, i32* %38, align 4
  %40 = sub nsw i32 %39, 1
  %41 = icmp slt i32 %35, %40
  br i1 %41, label %42, label %109

42:                                               ; preds = %34
  store i32 0, i32* %3, align 4
  br label %43

43:                                               ; preds = %102, %42
  %44 = load i32, i32* %3, align 4
  %45 = load i32, i32* %4, align 4
  %46 = sext i32 %45 to i64
  %47 = getelementptr inbounds [2 x i32], [2 x i32]* %5, i64 0, i64 %46
  %48 = load i32, i32* %47, align 4
  %49 = load i32, i32* %2, align 4
  %50 = sub nsw i32 %48, %49
  %51 = icmp slt i32 %44, %50
  br i1 %51, label %52, label %105

52:                                               ; preds = %43
  %53 = load i32, i32* %4, align 4
  %54 = sext i32 %53 to i64
  %55 = getelementptr inbounds [2 x [100 x i8]], [2 x [100 x i8]]* %1, i64 0, i64 %54
  %56 = load i32, i32* %3, align 4
  %57 = sext i32 %56 to i64
  %58 = getelementptr inbounds [100 x i8], [100 x i8]* %55, i64 0, i64 %57
  %59 = load i8, i8* %58, align 1
  %60 = sext i8 %59 to i32
  %61 = load i32, i32* %4, align 4
  %62 = sext i32 %61 to i64
  %63 = getelementptr inbounds [2 x [100 x i8]], [2 x [100 x i8]]* %1, i64 0, i64 %62
  %64 = load i32, i32* %3, align 4
  %65 = add nsw i32 %64, 1
  %66 = sext i32 %65 to i64
  %67 = getelementptr inbounds [100 x i8], [100 x i8]* %63, i64 0, i64 %66
  %68 = load i8, i8* %67, align 1
  %69 = sext i8 %68 to i32
  %70 = icmp slt i32 %60, %69
  br i1 %70, label %71, label %101

71:                                               ; preds = %52
  %72 = load i32, i32* %4, align 4
  %73 = sext i32 %72 to i64
  %74 = getelementptr inbounds [2 x [100 x i8]], [2 x [100 x i8]]* %1, i64 0, i64 %73
  %75 = load i32, i32* %3, align 4
  %76 = sext i32 %75 to i64
  %77 = getelementptr inbounds [100 x i8], [100 x i8]* %74, i64 0, i64 %76
  %78 = load i8, i8* %77, align 1
  store i8 %78, i8* %7, align 1
  %79 = load i32, i32* %4, align 4
  %80 = sext i32 %79 to i64
  %81 = getelementptr inbounds [2 x [100 x i8]], [2 x [100 x i8]]* %1, i64 0, i64 %80
  %82 = load i32, i32* %3, align 4
  %83 = add nsw i32 %82, 1
  %84 = sext i32 %83 to i64
  %85 = getelementptr inbounds [100 x i8], [100 x i8]* %81, i64 0, i64 %84
  %86 = load i8, i8* %85, align 1
  %87 = load i32, i32* %4, align 4
  %88 = sext i32 %87 to i64
  %89 = getelementptr inbounds [2 x [100 x i8]], [2 x [100 x i8]]* %1, i64 0, i64 %88
  %90 = load i32, i32* %3, align 4
  %91 = sext i32 %90 to i64
  %92 = getelementptr inbounds [100 x i8], [100 x i8]* %89, i64 0, i64 %91
  store i8 %86, i8* %92, align 1
  %93 = load i8, i8* %7, align 1
  %94 = load i32, i32* %4, align 4
  %95 = sext i32 %94 to i64
  %96 = getelementptr inbounds [2 x [100 x i8]], [2 x [100 x i8]]* %1, i64 0, i64 %95
  %97 = load i32, i32* %3, align 4
  %98 = add nsw i32 %97, 1
  %99 = sext i32 %98 to i64
  %100 = getelementptr inbounds [100 x i8], [100 x i8]* %96, i64 0, i64 %99
  store i8 %93, i8* %100, align 1
  br label %101

101:                                              ; preds = %71, %52
  br label %102

102:                                              ; preds = %101
  %103 = load i32, i32* %3, align 4
  %104 = add nsw i32 %103, 1
  store i32 %104, i32* %3, align 4
  br label %43

105:                                              ; preds = %43
  br label %106

106:                                              ; preds = %105
  %107 = load i32, i32* %2, align 4
  %108 = add nsw i32 %107, 1
  store i32 %108, i32* %2, align 4
  br label %34

109:                                              ; preds = %34
  br label %110

110:                                              ; preds = %109
  %111 = load i32, i32* %4, align 4
  %112 = add nsw i32 %111, 1
  store i32 %112, i32* %4, align 4
  br label %30

113:                                              ; preds = %30
  %114 = getelementptr inbounds [2 x [100 x i8]], [2 x [100 x i8]]* %1, i64 0, i64 0
  %115 = getelementptr inbounds [100 x i8], [100 x i8]* %114, i64 0, i64 0
  %116 = getelementptr inbounds [2 x [100 x i8]], [2 x [100 x i8]]* %1, i64 0, i64 1
  %117 = getelementptr inbounds [100 x i8], [100 x i8]* %116, i64 0, i64 0
  %118 = call i32 @strcmp(i8* %115, i8* %117) #3
  %119 = icmp eq i32 %118, 0
  br i1 %119, label %120, label %121

120:                                              ; preds = %113
  store i32 0, i32* %6, align 4
  br label %122

121:                                              ; preds = %113
  store i32 1, i32* %6, align 4
  br label %122

122:                                              ; preds = %121, %120
  br label %123

123:                                              ; preds = %122, %28
  %124 = load i32, i32* %6, align 4
  %125 = icmp eq i32 %124, 0
  br i1 %125, label %126, label %128

126:                                              ; preds = %123
  %127 = call i32 (i8*, ...) @printf(i8* getelementptr inbounds ([4 x i8], [4 x i8]* @.str.1, i64 0, i64 0))
  br label %130

128:                                              ; preds = %123
  %129 = call i32 (i8*, ...) @printf(i8* getelementptr inbounds ([3 x i8], [3 x i8]* @.str.2, i64 0, i64 0))
  br label %130

130:                                              ; preds = %128, %126
  ret void
}

declare dso_local i32 @__isoc99_scanf(i8*, ...) #1

; Function Attrs: nounwind readonly
declare dso_local i64 @strlen(i8*) #2

; Function Attrs: nounwind readonly
declare dso_local i32 @strcmp(i8*, i8*) #2

declare dso_local i32 @printf(i8*, ...) #1


!llvm.module.flags = !{!0}
!llvm.ident = !{!1}

!0 = !{i32 1, !"wchar_size", i32 4}
!1 = !{!"clang version 10.0.0-4ubuntu1 "}
